; Function Attrs: mustprogress nounwind uwtable
define void @_ZN6icu_7512PluralFormatD2Ev(ptr noundef nonnull align 8 dereferenceable(712) %this) unnamed_addr #0 align 2 {
entry:
  store ptr getelementptr inbounds ({ [11 x ptr] }, ptr @_ZTVN6icu_7512PluralFormatE, i64 0, i32 0, i64 2), ptr %this, align 8
  %numberFormat = getelementptr inbounds i8, ptr %this, i64 680
  %0 = load ptr, ptr %numberFormat, align 8
  %isnull = icmp eq ptr %0, null
  br i1 %isnull, label %delete.end, label %delete.notnull

delete.notnull:                                   ; preds = %entry
  %vtable = load ptr, ptr %0, align 8
  %vfn = getelementptr inbounds i8, ptr %vtable, i64 8
  %1 = load ptr, ptr %vfn, align 8
  tail call void %1(ptr noundef nonnull align 8 dereferenceable(356) %0) #15
  br label %delete.end

delete.end:                                       ; preds = %delete.notnull, %entry
  %pluralRulesWrapper = getelementptr inbounds i8, ptr %this, i64 696
  tail call void @_ZN6icu_7512PluralFormat21PluralSelectorAdapterD1Ev(ptr noundef nonnull align 8 dereferenceable(16) %pluralRulesWrapper) #15
  %msgPattern = getelementptr inbounds i8, ptr %this, i64 552
  tail call void @_ZN6icu_7514MessagePatternD1Ev(ptr noundef nonnull align 8 dereferenceable(127) %msgPattern) #15
  %locale = getelementptr inbounds i8, ptr %this, i64 328
  tail call void @_ZN6icu_756LocaleD1Ev(ptr noundef nonnull align 8 dereferenceable(217) %locale) #15
  tail call void @_ZN6icu_756FormatD2Ev(ptr noundef nonnull align 8 dereferenceable(322) %this) #15
  ret void
}